target datalayout = "e-m:e-p270:32:32-p271:32:32-p272:64:64-i64:64-i128:128-f80:128-n8:16:32:64-S128"
target triple = "x86_64-pc-linux-gnu"

%"class.sat::literal" = type { i32 }
%"class.pb::card" = type { %"class.pb::constraint", [0 x %"class.sat::literal"] }
%"class.pb::constraint" = type { ptr, i32, i8, %"class.sat::literal", %"class.sat::literal", i32, i32, i32, i64, i8, i32, i8, i32 }

; Function Attrs: mustprogress nounwind uwtable
define linkonce_odr hidden noundef i32 @_ZNK2pb10constraint1kEv(ptr noundef nonnull align 8 dereferenceable(64) %0) #6 comdat align 2 {
  %2 = alloca ptr, align 8
  store ptr %0, ptr %2, align 8, !tbaa !22
  %3 = load ptr, ptr %2, align 8
  %4 = getelementptr inbounds nuw %"class.pb::constraint", ptr %3, i32 0, i32 12
  %5 = load i32, ptr %4, align 4, !tbaa !40
  ret i32 %5
}

; Function Attrs: mustprogress nounwind uwtable
define linkonce_odr hidden noundef ptr @_ZNK2pb4card3endEv(ptr noundef nonnull align 8 dereferenceable(64) %0) #6 comdat align 2 {
  %2 = alloca ptr, align 8
  store ptr %0, ptr %2, align 8, !tbaa !3
  %3 = load ptr, ptr %2, align 8
  %4 = getelementptr inbounds nuw %"class.pb::card", ptr %3, i32 0, i32 1
  %5 = getelementptr inbounds [0 x %"class.sat::literal"], ptr %4, i64 0, i64 0
  %6 = getelementptr inbounds nuw %"class.pb::constraint", ptr %3, i32 0, i32 7
  %7 = load i32, ptr %6, align 8, !tbaa !35
  %8 = zext i32 %7 to i64
  %9 = getelementptr inbounds nuw %"class.sat::literal", ptr %5, i64 %8
  ret ptr %9
}

; Function Attrs: mustprogress nounwind uwtable
define linkonce_odr hidden noundef ptr @_ZNK2pb4card5beginEv(ptr noundef nonnull align 8 dereferenceable(64) %0) #6 comdat align 2 {
  %2 = alloca ptr, align 8
  store ptr %0, ptr %2, align 8, !tbaa !3
  %3 = load ptr, ptr %2, align 8
  %4 = getelementptr inbounds nuw %"class.pb::card", ptr %3, i32 0, i32 1
  %5 = getelementptr inbounds [0 x %"class.sat::literal"], ptr %4, i64 0, i64 0
  ret ptr %5
}

; Function Attrs: mustprogress uwtable
define hidden noundef i32 @_ZNK2pb4card4evalERKNS_16solver_interfaceE(ptr noundef nonnull align 8 dereferenceable(64) %0, ptr noundef nonnull align 8 dereferenceable(8) %1) unnamed_addr #4 align 2 {
  %3 = alloca i32, align 4
  %4 = alloca ptr, align 8
  %5 = alloca ptr, align 8
  %6 = alloca i32, align 4
  %7 = alloca i32, align 4
  %8 = alloca ptr, align 8
  %9 = alloca ptr, align 8
  %10 = alloca ptr, align 8
  %11 = alloca %"class.sat::literal", align 4
  %12 = alloca %"class.sat::literal", align 4
  %13 = alloca i32, align 4
  store ptr %0, ptr %4, align 8, !tbaa !3
  store ptr %1, ptr %5, align 8, !tbaa !47
  %14 = load ptr, ptr %4, align 8
  call void @llvm.lifetime.start.p0(i64 4, ptr %6) #3
  store i32 0, ptr %6, align 4, !tbaa !8
  call void @llvm.lifetime.start.p0(i64 4, ptr %7) #3
  store i32 0, ptr %7, align 4, !tbaa !8
  call void @llvm.lifetime.start.p0(i64 8, ptr %8) #3
  store ptr %14, ptr %8, align 8, !tbaa !3
  call void @llvm.lifetime.start.p0(i64 8, ptr %9) #3
  %15 = load ptr, ptr %8, align 8, !tbaa !3
  %16 = call noundef ptr @_ZNK2pb4card5beginEv(ptr noundef nonnull align 8 dereferenceable(64) %15)
  store ptr %16, ptr %9, align 8, !tbaa !42
  call void @llvm.lifetime.start.p0(i64 8, ptr %10) #3
  %17 = load ptr, ptr %8, align 8, !tbaa !3
  %18 = call noundef ptr @_ZNK2pb4card3endEv(ptr noundef nonnull align 8 dereferenceable(64) %17)
  store ptr %18, ptr %10, align 8, !tbaa !42
  br label %19

19:                                               ; preds = %41, %2
  %20 = load ptr, ptr %9, align 8, !tbaa !42
  %21 = load ptr, ptr %10, align 8, !tbaa !42
  %22 = icmp ne ptr %20, %21
  br i1 %22, label %24, label %23

23:                                               ; preds = %19
  call void @llvm.lifetime.end.p0(i64 8, ptr %10) #3
  call void @llvm.lifetime.end.p0(i64 8, ptr %9) #3
  call void @llvm.lifetime.end.p0(i64 8, ptr %8) #3
  br label %44

24:                                               ; preds = %19
  call void @llvm.lifetime.start.p0(i64 4, ptr %11) #3
  %25 = load ptr, ptr %9, align 8, !tbaa !42
  call void @llvm.memcpy.p0.p0.i64(ptr align 4 %11, ptr align 4 %25, i64 4, i1 false), !tbaa.struct !12
  %26 = load ptr, ptr %5, align 8, !tbaa !47
  call void @llvm.memcpy.p0.p0.i64(ptr align 4 %12, ptr align 4 %11, i64 4, i1 false), !tbaa.struct !12
  %27 = getelementptr inbounds nuw %"class.sat::literal", ptr %12, i32 0, i32 0
  %28 = load i32, ptr %27, align 4
  %29 = load ptr, ptr %26, align 8, !tbaa !13
  %30 = getelementptr inbounds ptr, ptr %29, i64 3
  %31 = load ptr, ptr %30, align 8
  %32 = call noundef i32 %31(ptr noundef nonnull align 8 dereferenceable(8) %26, i32 %28)
  switch i32 %32, label %39 [
    i32 1, label %33
    i32 0, label %36
  ]

33:                                               ; preds = %24
  %34 = load i32, ptr %6, align 4, !tbaa !8
  %35 = add i32 %34, 1
  store i32 %35, ptr %6, align 4, !tbaa !8
  br label %40

36:                                               ; preds = %24
  %37 = load i32, ptr %7, align 4, !tbaa !8
  %38 = add i32 %37, 1
  store i32 %38, ptr %7, align 4, !tbaa !8
  br label %40

39:                                               ; preds = %24
  br label %40

40:                                               ; preds = %39, %36, %33
  call void @llvm.lifetime.end.p0(i64 4, ptr %11) #3
  br label %41

41:                                               ; preds = %40
  %42 = load ptr, ptr %9, align 8, !tbaa !42
  %43 = getelementptr inbounds nuw %"class.sat::literal", ptr %42, i32 1
  store ptr %43, ptr %9, align 8, !tbaa !42
  br label %19

44:                                               ; preds = %23
  %45 = load i32, ptr %6, align 4, !tbaa !8
  %46 = load i32, ptr %7, align 4, !tbaa !8
  %47 = add i32 %45, %46
  %48 = call noundef i32 @_ZNK2pb10constraint1kEv(ptr noundef nonnull align 8 dereferenceable(64) %14)
  %49 = icmp ult i32 %47, %48
  br i1 %49, label %50, label %51

50:                                               ; preds = %44
  store i32 -1, ptr %3, align 4
  store i32 1, ptr %13, align 4
  br label %57

51:                                               ; preds = %44
  %52 = load i32, ptr %6, align 4, !tbaa !8
  %53 = call noundef i32 @_ZNK2pb10constraint1kEv(ptr noundef nonnull align 8 dereferenceable(64) %14)
  %54 = icmp uge i32 %52, %53
  br i1 %54, label %55, label %56

55:                                               ; preds = %51
  store i32 1, ptr %3, align 4
  store i32 1, ptr %13, align 4
  br label %57

56:                                               ; preds = %51
  store i32 0, ptr %3, align 4
  store i32 1, ptr %13, align 4
  br label %57

57:                                               ; preds = %56, %55, %50
  call void @llvm.lifetime.end.p0(i64 4, ptr %7) #3
  call void @llvm.lifetime.end.p0(i64 4, ptr %6) #3
  %58 = load i32, ptr %3, align 4
  ret i32 %58
}