; Function Attrs: mustprogress uwtable
define hidden noundef range(i32 -1, 2) i32 @_ZNK2pb4card4evalERKNS_16solver_interfaceE(ptr noundef nonnull readonly align 8 captures(address) dereferenceable(64) %0, ptr noundef nonnull align 8 dereferenceable(8) %1) unnamed_addr #8 align 2 {
  %3 = getelementptr inbounds nuw i8, ptr %0, i64 32
  %4 = load i32, ptr %3, align 8, !tbaa !20
  %5 = zext i32 %4 to i64
  %.idx = shl nuw nsw i64 %5, 2
  %6 = getelementptr inbounds nuw i8, ptr %0, i64 %.idx
  %.ptr24 = getelementptr inbounds nuw i8, ptr %6, i64 64
  %.not19 = icmp eq i32 %4, 0
  br i1 %.not19, label %._crit_edge, label %.lr.ph.preheader

.lr.ph.preheader:                                 ; preds = %2
  %.ptr = getelementptr inbounds nuw i8, ptr %0, i64 64
  br label %.lr.ph

._crit_edge:                                      ; preds = %19, %2
  %.015.lcssa = phi i32 [ 0, %2 ], [ %.116, %19 ]
  %.014.lcssa = phi i32 [ 0, %2 ], [ %.1, %19 ]
  %7 = add i32 %.014.lcssa, %.015.lcssa
  %8 = getelementptr inbounds nuw i8, ptr %0, i64 60
  %9 = load i32, ptr %8, align 4, !tbaa !25
  %10 = icmp ult i32 %7, %9
  %.not18 = icmp uge i32 %.014.lcssa, %9
  %. = zext i1 %.not18 to i32
  %.0 = select i1 %10, i32 -1, i32 %.
  ret i32 %.0

.lr.ph:                                           ; preds = %.lr.ph.preheader, %19
  %.01422 = phi i32 [ %.1, %19 ], [ 0, %.lr.ph.preheader ]
  %.01521 = phi i32 [ %.116, %19 ], [ 0, %.lr.ph.preheader ]
  %.01720 = phi ptr [ %20, %19 ], [ %.ptr, %.lr.ph.preheader ]
  %.sroa.01.0.copyload = load i32, ptr %.01720, align 4, !tbaa !9
  %11 = load ptr, ptr %1, align 8, !tbaa !26
  %12 = getelementptr inbounds nuw i8, ptr %11, i64 24
  %13 = load ptr, ptr %12, align 8
  %14 = tail call noundef i32 %13(ptr noundef nonnull align 8 dereferenceable(8) %1, i32 %.sroa.01.0.copyload)
  switch i32 %14, label %19 [
    i32 1, label %15
    i32 0, label %17
  ]

15:                                               ; preds = %.lr.ph
  %16 = add i32 %.01422, 1
  br label %19

17:                                               ; preds = %.lr.ph
  %18 = add i32 %.01521, 1
  br label %19

19:                                               ; preds = %.lr.ph, %17, %15
  %.116 = phi i32 [ %.01521, %.lr.ph ], [ %18, %17 ], [ %.01521, %15 ]
  %.1 = phi i32 [ %.01422, %.lr.ph ], [ %.01422, %17 ], [ %16, %15 ]
  %20 = getelementptr inbounds nuw i8, ptr %.01720, i64 4
  %.not = icmp eq ptr %20, %.ptr24
  br i1 %.not, label %._crit_edge, label %.lr.ph
}